target datalayout = "e-m:e-p270:32:32-p271:32:32-p272:64:64-i64:64-i128:128-f80:128-n8:16:32:64-S128"
target triple = "x86_64-pc-linux-gnu"

%struct.commit = type { %struct.object, i64, ptr, ptr, i32 }
%struct.object = type { i32, %struct.object_id }
%struct.object_id = type { [32 x i8], i32 }
%struct.commit_list = type { ptr, ptr }

; Function Attrs: nounwind uwtable
define dso_local i32 @rewrite_parents(ptr noundef %0, ptr noundef %1, ptr noundef %2) #0 {
  %4 = alloca i32, align 4
  %5 = alloca ptr, align 8
  %6 = alloca ptr, align 8
  %7 = alloca ptr, align 8
  %8 = alloca ptr, align 8
  %9 = alloca ptr, align 8
  %10 = alloca i32, align 4
  store ptr %0, ptr %5, align 8, !tbaa !88
  store ptr %1, ptr %6, align 8, !tbaa !24
  store ptr %2, ptr %7, align 8, !tbaa !21
  call void @llvm.lifetime.start.p0(i64 8, ptr %8) #12
  %11 = load ptr, ptr %6, align 8, !tbaa !24
  %12 = getelementptr inbounds nuw %struct.commit, ptr %11, i32 0, i32 2
  store ptr %12, ptr %8, align 8, !tbaa !318
  br label %13

13:                                               ; preds = %37, %35, %3
  %14 = load ptr, ptr %8, align 8, !tbaa !318
  %15 = load ptr, ptr %14, align 8, !tbaa !91
  %16 = icmp ne ptr %15, null
  br i1 %16, label %17, label %38

17:                                               ; preds = %13
  call void @llvm.lifetime.start.p0(i64 8, ptr %9) #12
  %18 = load ptr, ptr %8, align 8, !tbaa !318
  %19 = load ptr, ptr %18, align 8, !tbaa !91
  store ptr %19, ptr %9, align 8, !tbaa !91
  %20 = load ptr, ptr %7, align 8, !tbaa !21
  %21 = load ptr, ptr %5, align 8, !tbaa !88
  %22 = load ptr, ptr %9, align 8, !tbaa !91
  %23 = getelementptr inbounds nuw %struct.commit_list, ptr %22, i32 0, i32 0
  %24 = call i32 %20(ptr noundef %21, ptr noundef %23)
  switch i32 %24, label %32 [
    i32 0, label %32
    i32 1, label %25
    i32 2, label %31
  ]

25:                                               ; preds = %17
  %26 = load ptr, ptr %9, align 8, !tbaa !91
  %27 = getelementptr inbounds nuw %struct.commit_list, ptr %26, i32 0, i32 1
  %28 = load ptr, ptr %27, align 8, !tbaa !94
  %29 = load ptr, ptr %8, align 8, !tbaa !318
  store ptr %28, ptr %29, align 8, !tbaa !91
  %30 = load ptr, ptr %9, align 8, !tbaa !91
  call void @free(ptr noundef %30) #12
  store i32 2, ptr %10, align 4
  br label %35, !llvm.loop !379

31:                                               ; preds = %17
  store i32 -1, ptr %4, align 4
  store i32 1, ptr %10, align 4
  br label %35

32:                                               ; preds = %17, %17
  %33 = load ptr, ptr %9, align 8, !tbaa !91
  %34 = getelementptr inbounds nuw %struct.commit_list, ptr %33, i32 0, i32 1
  store ptr %34, ptr %8, align 8, !tbaa !318
  store i32 0, ptr %10, align 4
  br label %35

35:                                               ; preds = %32, %31, %25
  call void @llvm.lifetime.end.p0(i64 8, ptr %9) #12
  %36 = load i32, ptr %10, align 4
  switch i32 %36, label %42 [
    i32 0, label %37
    i32 2, label %13
  ]

37:                                               ; preds = %35
  br label %13, !llvm.loop !379

38:                                               ; preds = %13
  %39 = load ptr, ptr %5, align 8, !tbaa !88
  %40 = load ptr, ptr %6, align 8, !tbaa !24
  %41 = call i32 @remove_duplicate_parents(ptr noundef %39, ptr noundef %40)
  store i32 0, ptr %4, align 4
  store i32 1, ptr %10, align 4
  br label %42

42:                                               ; preds = %38, %35
  call void @llvm.lifetime.end.p0(i64 8, ptr %8) #12
  %43 = load i32, ptr %4, align 4
  ret i32 %43
}