; Function Attrs: nounwind uwtable
define dso_local range(i32 -1, 1) i32 @rewrite_parents(ptr noundef %0, ptr noundef %1, ptr noundef readonly captures(none) %2) local_unnamed_addr #2 {
  %4 = getelementptr inbounds nuw i8, ptr %1, i64 48
  %5 = load ptr, ptr %4, align 8, !tbaa !58
  %.not19 = icmp eq ptr %5, null
  br i1 %.not19, label %._crit_edge, label %.lr.ph

.lr.ph:                                           ; preds = %3, %13
  %6 = phi ptr [ %14, %13 ], [ %5, %3 ]
  %.01420 = phi ptr [ %.115, %13 ], [ %4, %3 ]
  %7 = tail call i32 %2(ptr noundef %0, ptr noundef nonnull %6) #26
  switch i32 %7, label %11 [
    i32 2, label %.thread
    i32 1, label %8
  ]

8:                                                ; preds = %.lr.ph
  %9 = getelementptr inbounds nuw i8, ptr %6, i64 8
  %10 = load ptr, ptr %9, align 8, !tbaa !251
  store ptr %10, ptr %.01420, align 8, !tbaa !58
  tail call void @free(ptr noundef nonnull %6) #26
  br label %13, !llvm.loop !375

11:                                               ; preds = %.lr.ph
  %12 = getelementptr inbounds nuw i8, ptr %6, i64 8
  br label %13

13:                                               ; preds = %11, %8
  %.115 = phi ptr [ %12, %11 ], [ %.01420, %8 ]
  %14 = load ptr, ptr %.115, align 8, !tbaa !58
  %.not = icmp eq ptr %14, null
  br i1 %.not, label %._crit_edge, label %.lr.ph

._crit_edge:                                      ; preds = %13, %3
  %15 = tail call fastcc i32 @remove_duplicate_parents(ptr noundef %0, ptr noundef %1)
  br label %.thread

.thread:                                          ; preds = %.lr.ph, %._crit_edge
  %.2 = phi i32 [ 0, %._crit_edge ], [ -1, %.lr.ph ]
  ret i32 %.2
}